target datalayout = "e-m:e-p270:32:32-p271:32:32-p272:64:64-i64:64-i128:128-f80:128-n8:16:32:64-S128"
target triple = "x86_64-pc-linux-gnu"

%struct.psa_key_attributes_s = type { i16, i16, i32, %struct.psa_key_policy_s, i32 }
%struct.psa_key_policy_s = type { i32, i32, i32 }

; Function Attrs: inlinehint nounwind uwtable
define internal zeroext i8 @mbedtls_md_get_size_from_type(i32 noundef %0) #7 {
  %2 = alloca i32, align 4
  store i32 %0, ptr %2, align 4, !tbaa !17
  %3 = load i32, ptr %2, align 4, !tbaa !17
  %4 = call ptr @mbedtls_md_info_from_type(i32 noundef %3)
  %5 = call zeroext i8 @mbedtls_md_get_size(ptr noundef %4)
  ret i8 %5
}

; Function Attrs: inlinehint nounwind uwtable
define internal i32 @mbedtls_md_type_from_psa_alg(i32 noundef %0) #7 {
  %2 = alloca i32, align 4
  store i32 %0, ptr %2, align 4, !tbaa !17
  %3 = load i32, ptr %2, align 4, !tbaa !17
  %4 = and i32 %3, 255
  ret i32 %4
}

; Function Attrs: nounwind uwtable
define internal i32 @rsa_pss_expected_salt_len(i32 noundef %0, ptr noundef %1, i64 noundef %2) #0 {
  %4 = alloca i32, align 4
  %5 = alloca i32, align 4
  %6 = alloca ptr, align 8
  %7 = alloca i64, align 8
  %8 = alloca i32, align 4
  %9 = alloca i32, align 4
  %10 = alloca i32, align 4
  %11 = alloca i32, align 4
  store i32 %0, ptr %5, align 4, !tbaa !17
  store ptr %1, ptr %6, align 8, !tbaa !15
  store i64 %2, ptr %7, align 8, !tbaa !10
  %12 = load i32, ptr %5, align 4, !tbaa !17
  %13 = and i32 %12, -256
  %14 = icmp eq i32 %13, 100668160
  br i1 %14, label %15, label %16

15:                                               ; preds = %3
  store i32 -1, ptr %4, align 4
  br label %38

16:                                               ; preds = %3
  call void @llvm.lifetime.start.p0(i64 4, ptr %8) #8
  %17 = load ptr, ptr %6, align 8, !tbaa !15
  %18 = call i64 @mbedtls_rsa_get_len(ptr noundef %17)
  %19 = trunc i64 %18 to i32
  store i32 %19, ptr %8, align 4, !tbaa !17
  call void @llvm.lifetime.start.p0(i64 4, ptr %9) #8
  %20 = load i64, ptr %7, align 8, !tbaa !10
  %21 = trunc i64 %20 to i32
  store i32 %21, ptr %9, align 4, !tbaa !17
  call void @llvm.lifetime.start.p0(i64 4, ptr %10) #8
  %22 = load i32, ptr %8, align 4, !tbaa !17
  %23 = sub nsw i32 %22, 2
  %24 = load i32, ptr %9, align 4, !tbaa !17
  %25 = sub nsw i32 %23, %24
  store i32 %25, ptr %10, align 4, !tbaa !17
  %26 = load i32, ptr %10, align 4, !tbaa !17
  %27 = icmp slt i32 %26, 0
  br i1 %27, label %28, label %29

28:                                               ; preds = %16
  store i32 0, ptr %4, align 4
  store i32 1, ptr %11, align 4
  br label %37

29:                                               ; preds = %16
  %30 = load i32, ptr %10, align 4, !tbaa !17
  %31 = load i32, ptr %9, align 4, !tbaa !17
  %32 = icmp sgt i32 %30, %31
  br i1 %32, label %33, label %35

33:                                               ; preds = %29
  %34 = load i32, ptr %9, align 4, !tbaa !17
  store i32 %34, ptr %4, align 4
  store i32 1, ptr %11, align 4
  br label %37

35:                                               ; preds = %29
  %36 = load i32, ptr %10, align 4, !tbaa !17
  store i32 %36, ptr %4, align 4
  store i32 1, ptr %11, align 4
  br label %37

37:                                               ; preds = %35, %33, %28
  call void @llvm.lifetime.end.p0(i64 4, ptr %10) #8
  call void @llvm.lifetime.end.p0(i64 4, ptr %9) #8
  call void @llvm.lifetime.end.p0(i64 4, ptr %8) #8
  br label %38

38:                                               ; preds = %37, %15
  %39 = load i32, ptr %4, align 4
  ret i32 %39
}

; Function Attrs: nounwind uwtable
define internal i32 @psa_rsa_decode_md_type(i32 noundef %0, i64 noundef %1, ptr noundef %2) #0 {
  %4 = alloca i32, align 4
  %5 = alloca i32, align 4
  %6 = alloca i64, align 8
  %7 = alloca ptr, align 8
  %8 = alloca i32, align 4
  %9 = alloca i32, align 4
  store i32 %0, ptr %5, align 4, !tbaa !17
  store i64 %1, ptr %6, align 8, !tbaa !10
  store ptr %2, ptr %7, align 8, !tbaa !32
  call void @llvm.lifetime.start.p0(i64 4, ptr %8) #8
  %10 = load i32, ptr %5, align 4, !tbaa !17
  %11 = and i32 %10, -256
  %12 = icmp eq i32 %11, 100664064
  br i1 %12, label %35, label %13

13:                                               ; preds = %3
  %14 = load i32, ptr %5, align 4, !tbaa !17
  %15 = and i32 %14, -256
  %16 = icmp eq i32 %15, 100668160
  br i1 %16, label %35, label %17

17:                                               ; preds = %13
  %18 = load i32, ptr %5, align 4, !tbaa !17
  %19 = and i32 %18, -256
  %20 = icmp eq i32 %19, 100663808
  br i1 %20, label %35, label %21

21:                                               ; preds = %17
  %22 = load i32, ptr %5, align 4, !tbaa !17
  %23 = and i32 %22, -256
  %24 = and i32 %23, -257
  %25 = icmp eq i32 %24, 100664832
  br i1 %25, label %35, label %26

26:                                               ; preds = %21
  %27 = load i32, ptr %5, align 4, !tbaa !17
  %28 = and i32 %27, -256
  %29 = icmp eq i32 %28, 100665600
  br i1 %29, label %35, label %30

30:                                               ; preds = %26
  %31 = load i32, ptr %5, align 4, !tbaa !17
  %32 = and i32 %31, -256
  %33 = and i32 %32, -257
  %34 = icmp eq i32 %33, 100664320
  br i1 %34, label %35, label %43

35:                                               ; preds = %30, %26, %21, %17, %13, %3
  %36 = load i32, ptr %5, align 4, !tbaa !17
  %37 = and i32 %36, 255
  %38 = icmp ne i32 %37, 0
  br i1 %38, label %39, label %43

39:                                               ; preds = %35
  %40 = load i32, ptr %5, align 4, !tbaa !17
  %41 = and i32 %40, 255
  %42 = or i32 %41, 33554432
  br label %44

43:                                               ; preds = %35, %30
  br label %44

44:                                               ; preds = %43, %39
  %45 = phi i32 [ %42, %39 ], [ 0, %43 ]
  store i32 %45, ptr %8, align 4, !tbaa !17
  %46 = load i32, ptr %8, align 4, !tbaa !17
  %47 = call i32 @mbedtls_md_type_from_psa_alg(i32 noundef %46)
  %48 = load ptr, ptr %7, align 8, !tbaa !32
  store i32 %47, ptr %48, align 4, !tbaa !17
  %49 = load i64, ptr %6, align 8, !tbaa !10
  %50 = icmp ugt i64 %49, 4294967295
  br i1 %50, label %51, label %52

51:                                               ; preds = %44
  store i32 -135, ptr %4, align 4
  store i32 1, ptr %9, align 4
  br label %70

52:                                               ; preds = %44
  %53 = load i32, ptr %5, align 4, !tbaa !17
  %54 = icmp ne i32 %53, 100663808
  br i1 %54, label %55, label %69

55:                                               ; preds = %52
  %56 = load ptr, ptr %7, align 8, !tbaa !32
  %57 = load i32, ptr %56, align 4, !tbaa !17
  %58 = icmp eq i32 %57, 0
  br i1 %58, label %59, label %60

59:                                               ; preds = %55
  store i32 -134, ptr %4, align 4
  store i32 1, ptr %9, align 4
  br label %70

60:                                               ; preds = %55
  %61 = load ptr, ptr %7, align 8, !tbaa !32
  %62 = load i32, ptr %61, align 4, !tbaa !17
  %63 = call zeroext i8 @mbedtls_md_get_size_from_type(i32 noundef %62)
  %64 = zext i8 %63 to i64
  %65 = load i64, ptr %6, align 8, !tbaa !10
  %66 = icmp ne i64 %64, %65
  br i1 %66, label %67, label %68

67:                                               ; preds = %60
  store i32 -135, ptr %4, align 4
  store i32 1, ptr %9, align 4
  br label %70

68:                                               ; preds = %60
  br label %69

69:                                               ; preds = %68, %52
  store i32 0, ptr %4, align 4
  store i32 1, ptr %9, align 4
  br label %70

70:                                               ; preds = %69, %67, %59, %51
  call void @llvm.lifetime.end.p0(i64 4, ptr %8) #8
  %71 = load i32, ptr %4, align 4
  ret i32 %71
}

; Function Attrs: nounwind uwtable
define hidden i32 @mbedtls_psa_rsa_verify_hash(ptr noundef %0, ptr noundef %1, i64 noundef %2, i32 noundef %3, ptr noundef %4, i64 noundef %5, ptr noundef %6, i64 noundef %7) #0 {
  %9 = alloca ptr, align 8
  %10 = alloca ptr, align 8
  %11 = alloca i64, align 8
  %12 = alloca i32, align 4
  %13 = alloca ptr, align 8
  %14 = alloca i64, align 8
  %15 = alloca ptr, align 8
  %16 = alloca i64, align 8
  %17 = alloca i32, align 4
  %18 = alloca ptr, align 8
  %19 = alloca i32, align 4
  %20 = alloca i32, align 4
  %21 = alloca i32, align 4
  store ptr %0, ptr %9, align 8, !tbaa !19
  store ptr %1, ptr %10, align 8, !tbaa !7
  store i64 %2, ptr %11, align 8, !tbaa !10
  store i32 %3, ptr %12, align 4, !tbaa !17
  store ptr %4, ptr %13, align 8, !tbaa !7
  store i64 %5, ptr %14, align 8, !tbaa !10
  store ptr %6, ptr %15, align 8, !tbaa !7
  store i64 %7, ptr %16, align 8, !tbaa !10
  call void @llvm.lifetime.start.p0(i64 4, ptr %17) #8
  store i32 -151, ptr %17, align 4, !tbaa !17
  call void @llvm.lifetime.start.p0(i64 8, ptr %18) #8
  store ptr null, ptr %18, align 8, !tbaa !15
  call void @llvm.lifetime.start.p0(i64 4, ptr %19) #8
  store i32 -110, ptr %19, align 4, !tbaa !17
  call void @llvm.lifetime.start.p0(i64 4, ptr %20) #8
  %22 = load ptr, ptr %9, align 8, !tbaa !19
  %23 = getelementptr inbounds nuw %struct.psa_key_attributes_s, ptr %22, i32 0, i32 0
  %24 = load i16, ptr %23, align 4, !tbaa !23
  %25 = load ptr, ptr %10, align 8, !tbaa !7
  %26 = load i64, ptr %11, align 8, !tbaa !10
  %27 = call i32 @mbedtls_psa_rsa_load_representation(i16 noundef zeroext %24, ptr noundef %25, i64 noundef %26, ptr noundef %18)
  store i32 %27, ptr %17, align 4, !tbaa !17
  %28 = load i32, ptr %17, align 4, !tbaa !17
  %29 = icmp ne i32 %28, 0
  br i1 %29, label %30, label %31

30:                                               ; preds = %8
  br label %102

31:                                               ; preds = %8
  %32 = load i32, ptr %12, align 4, !tbaa !17
  %33 = load i64, ptr %14, align 8, !tbaa !10
  %34 = call i32 @psa_rsa_decode_md_type(i32 noundef %32, i64 noundef %33, ptr noundef %20)
  store i32 %34, ptr %17, align 4, !tbaa !17
  %35 = load i32, ptr %17, align 4, !tbaa !17
  %36 = icmp ne i32 %35, 0
  br i1 %36, label %37, label %38

37:                                               ; preds = %31
  br label %102

38:                                               ; preds = %31
  %39 = load i64, ptr %16, align 8, !tbaa !10
  %40 = load ptr, ptr %18, align 8, !tbaa !15
  %41 = call i64 @mbedtls_rsa_get_len(ptr noundef %40)
  %42 = icmp ne i64 %39, %41
  br i1 %42, label %43, label %44

43:                                               ; preds = %38
  store i32 -149, ptr %17, align 4, !tbaa !17
  br label %102

44:                                               ; preds = %38
  %45 = load i32, ptr %12, align 4, !tbaa !17
  %46 = and i32 %45, -256
  %47 = icmp eq i32 %46, 100663808
  br i1 %47, label %48, label %62

48:                                               ; preds = %44
  %49 = load ptr, ptr %18, align 8, !tbaa !15
  %50 = call i32 @mbedtls_rsa_set_padding(ptr noundef %49, i32 noundef 0, i32 noundef 0)
  store i32 %50, ptr %19, align 4, !tbaa !17
  %51 = load i32, ptr %19, align 4, !tbaa !17
  %52 = icmp eq i32 %51, 0
  br i1 %52, label %53, label %61

53:                                               ; preds = %48
  %54 = load ptr, ptr %18, align 8, !tbaa !15
  %55 = load i32, ptr %20, align 4, !tbaa !17
  %56 = load i64, ptr %14, align 8, !tbaa !10
  %57 = trunc i64 %56 to i32
  %58 = load ptr, ptr %13, align 8, !tbaa !7
  %59 = load ptr, ptr %15, align 8, !tbaa !7
  %60 = call i32 @mbedtls_rsa_pkcs1_verify(ptr noundef %54, i32 noundef %55, i32 noundef %57, ptr noundef %58, ptr noundef %59)
  store i32 %60, ptr %19, align 4, !tbaa !17
  br label %61

61:                                               ; preds = %53, %48
  br label %93

62:                                               ; preds = %44
  %63 = load i32, ptr %12, align 4, !tbaa !17
  %64 = and i32 %63, -256
  %65 = icmp eq i32 %64, 100664064
  br i1 %65, label %70, label %66

66:                                               ; preds = %62
  %67 = load i32, ptr %12, align 4, !tbaa !17
  %68 = and i32 %67, -256
  %69 = icmp eq i32 %68, 100668160
  br i1 %69, label %70, label %91

70:                                               ; preds = %66, %62
  %71 = load ptr, ptr %18, align 8, !tbaa !15
  %72 = load i32, ptr %20, align 4, !tbaa !17
  %73 = call i32 @mbedtls_rsa_set_padding(ptr noundef %71, i32 noundef 1, i32 noundef %72)
  store i32 %73, ptr %19, align 4, !tbaa !17
  %74 = load i32, ptr %19, align 4, !tbaa !17
  %75 = icmp eq i32 %74, 0
  br i1 %75, label %76, label %90

76:                                               ; preds = %70
  call void @llvm.lifetime.start.p0(i64 4, ptr %21) #8
  %77 = load i32, ptr %12, align 4, !tbaa !17
  %78 = load ptr, ptr %18, align 8, !tbaa !15
  %79 = load i64, ptr %14, align 8, !tbaa !10
  %80 = call i32 @rsa_pss_expected_salt_len(i32 noundef %77, ptr noundef %78, i64 noundef %79)
  store i32 %80, ptr %21, align 4, !tbaa !17
  %81 = load ptr, ptr %18, align 8, !tbaa !15
  %82 = load i32, ptr %20, align 4, !tbaa !17
  %83 = load i64, ptr %14, align 8, !tbaa !10
  %84 = trunc i64 %83 to i32
  %85 = load ptr, ptr %13, align 8, !tbaa !7
  %86 = load i32, ptr %20, align 4, !tbaa !17
  %87 = load i32, ptr %21, align 4, !tbaa !17
  %88 = load ptr, ptr %15, align 8, !tbaa !7
  %89 = call i32 @mbedtls_rsa_rsassa_pss_verify_ext(ptr noundef %81, i32 noundef %82, i32 noundef %84, ptr noundef %85, i32 noundef %86, i32 noundef %87, ptr noundef %88)
  store i32 %89, ptr %19, align 4, !tbaa !17
  call void @llvm.lifetime.end.p0(i64 4, ptr %21) #8
  br label %90

90:                                               ; preds = %76, %70
  br label %92

91:                                               ; preds = %66
  store i32 -135, ptr %17, align 4, !tbaa !17
  br label %102

92:                                               ; preds = %90
  br label %93

93:                                               ; preds = %92, %61
  %94 = load i32, ptr %19, align 4, !tbaa !17
  %95 = icmp eq i32 %94, -16640
  br i1 %95, label %96, label %97

96:                                               ; preds = %93
  br label %100

97:                                               ; preds = %93
  %98 = load i32, ptr %19, align 4, !tbaa !17
  %99 = call i32 @mbedtls_to_psa_error(i32 noundef %98)
  br label %100

100:                                              ; preds = %97, %96
  %101 = phi i32 [ -149, %96 ], [ %99, %97 ]
  store i32 %101, ptr %17, align 4, !tbaa !17
  br label %102

102:                                              ; preds = %100, %91, %43, %37, %30
  %103 = load ptr, ptr %18, align 8, !tbaa !15
  call void @mbedtls_rsa_free(ptr noundef %103)
  %104 = load ptr, ptr %18, align 8, !tbaa !15
  call void @free(ptr noundef %104) #8
  %105 = load i32, ptr %17, align 4, !tbaa !17
  call void @llvm.lifetime.end.p0(i64 4, ptr %20) #8
  call void @llvm.lifetime.end.p0(i64 4, ptr %19) #8
  call void @llvm.lifetime.end.p0(i64 8, ptr %18) #8
  call void @llvm.lifetime.end.p0(i64 4, ptr %17) #8
  ret i32 %105
}