; Function Attrs: nounwind uwtable
define hidden i32 @mbedtls_psa_rsa_verify_hash(ptr noundef readonly captures(none) %0, ptr noundef %1, i64 noundef %2, i32 noundef %3, ptr noundef %4, i64 noundef %5, ptr noundef %6, i64 noundef %7) local_unnamed_addr #0 {
  %9 = alloca ptr, align 8
  call void @llvm.lifetime.start.p0(i64 8, ptr nonnull %9) #9
  %10 = load i16, ptr %0, align 4, !tbaa !8
  %11 = call i32 @mbedtls_psa_rsa_load_representation(i16 noundef zeroext %10, ptr noundef %1, i64 noundef %2, ptr noundef nonnull %9)
  %.not = icmp eq i32 %11, 0
  br i1 %.not, label %12, label %psa_rsa_decode_md_type.exit.thread

12:                                               ; preds = %8
  %13 = and i32 %3, -256
  switch i32 %13, label %switch.early.test.i [
    i32 100664064, label %15
    i32 100668160, label %15
    i32 100663808, label %15
    i32 100665600, label %15
  ]

switch.early.test.i:                              ; preds = %12
  %14 = and i32 %3, -512
  switch i32 %14, label %17 [
    i32 100664832, label %15
    i32 100664320, label %15
  ]

15:                                               ; preds = %switch.early.test.i, %switch.early.test.i, %12, %12, %12, %12
  %16 = and i32 %3, 255
  br label %17

17:                                               ; preds = %15, %switch.early.test.i
  %18 = phi i32 [ 0, %switch.early.test.i ], [ %16, %15 ]
  %19 = icmp ugt i64 %5, 4294967295
  br i1 %19, label %psa_rsa_decode_md_type.exit.thread, label %20

20:                                               ; preds = %17
  %.not20.i = icmp eq i32 %3, 100663808
  br i1 %.not20.i, label %psa_rsa_decode_md_type.exit, label %21

21:                                               ; preds = %20
  %22 = icmp eq i32 %18, 0
  br i1 %22, label %psa_rsa_decode_md_type.exit.thread, label %23

23:                                               ; preds = %21
  %24 = tail call ptr @mbedtls_md_info_from_type(i32 noundef range(i32 1, 0) %18) #9
  %25 = tail call zeroext i8 @mbedtls_md_get_size(ptr noundef %24) #9
  %26 = zext i8 %25 to i64
  %.not21.i = icmp eq i64 %5, %26
  br i1 %.not21.i, label %psa_rsa_decode_md_type.exit, label %psa_rsa_decode_md_type.exit.thread

psa_rsa_decode_md_type.exit:                      ; preds = %23, %20
  %27 = load ptr, ptr %9, align 8, !tbaa !3
  %28 = tail call i64 @mbedtls_rsa_get_len(ptr noundef %27) #9
  %.not31 = icmp eq i64 %7, %28
  br i1 %.not31, label %29, label %psa_rsa_decode_md_type.exit.thread

29:                                               ; preds = %psa_rsa_decode_md_type.exit
  switch i32 %13, label %psa_rsa_decode_md_type.exit.thread [
    i32 100663808, label %30
    i32 100664064, label %36
    i32 100668160, label %36
  ]

30:                                               ; preds = %29
  %31 = tail call i32 @mbedtls_rsa_set_padding(ptr noundef %27, i32 noundef 0, i32 noundef 0) #9
  %32 = icmp eq i32 %31, 0
  br i1 %32, label %33, label %48

33:                                               ; preds = %30
  %34 = trunc nuw i64 %5 to i32
  %35 = tail call i32 @mbedtls_rsa_pkcs1_verify(ptr noundef %27, i32 noundef %18, i32 noundef %34, ptr noundef %4, ptr noundef %6) #9
  br label %48

36:                                               ; preds = %29, %29
  %37 = tail call i32 @mbedtls_rsa_set_padding(ptr noundef %27, i32 noundef 1, i32 noundef %18) #9
  %38 = icmp eq i32 %37, 0
  br i1 %38, label %39, label %48

39:                                               ; preds = %36
  %40 = icmp eq i32 %13, 100668160
  br i1 %40, label %.rsa_pss_expected_salt_len.exit_crit_edge, label %41

.rsa_pss_expected_salt_len.exit_crit_edge:        ; preds = %39
  %.pre = trunc nuw i64 %5 to i32
  br label %rsa_pss_expected_salt_len.exit

41:                                               ; preds = %39
  %42 = tail call i64 @mbedtls_rsa_get_len(ptr noundef %27) #9
  %43 = trunc i64 %42 to i32
  %44 = trunc nuw i64 %5 to i32
  %reass.sub.i = sub i32 %43, %44
  %45 = add i32 %reass.sub.i, -2
  %46 = icmp slt i32 %45, 0
  %..i = tail call i32 @llvm.smin.i32(i32 %45, i32 %44)
  %.1.i = select i1 %46, i32 0, i32 %..i
  br label %rsa_pss_expected_salt_len.exit

rsa_pss_expected_salt_len.exit:                   ; preds = %.rsa_pss_expected_salt_len.exit_crit_edge, %41
  %.pre-phi = phi i32 [ %.pre, %.rsa_pss_expected_salt_len.exit_crit_edge ], [ %44, %41 ]
  %.0.i32 = phi i32 [ -1, %.rsa_pss_expected_salt_len.exit_crit_edge ], [ %.1.i, %41 ]
  %47 = tail call i32 @mbedtls_rsa_rsassa_pss_verify_ext(ptr noundef %27, i32 noundef %18, i32 noundef %.pre-phi, ptr noundef %4, i32 noundef %18, i32 noundef %.0.i32, ptr noundef %6) #9
  br label %48

48:                                               ; preds = %rsa_pss_expected_salt_len.exit, %36, %30, %33
  %.024 = phi i32 [ %35, %33 ], [ %31, %30 ], [ %47, %rsa_pss_expected_salt_len.exit ], [ %37, %36 ]
  %49 = icmp eq i32 %.024, -16640
  br i1 %49, label %psa_rsa_decode_md_type.exit.thread, label %50

50:                                               ; preds = %48
  %51 = tail call i32 @mbedtls_to_psa_error(i32 noundef %.024) #9
  br label %psa_rsa_decode_md_type.exit.thread

psa_rsa_decode_md_type.exit.thread:               ; preds = %23, %21, %17, %50, %48, %29, %psa_rsa_decode_md_type.exit, %8
  %.0 = phi i32 [ %11, %8 ], [ -149, %psa_rsa_decode_md_type.exit ], [ -135, %29 ], [ %51, %50 ], [ -149, %48 ], [ -135, %23 ], [ -134, %21 ], [ -135, %17 ]
  %52 = load ptr, ptr %9, align 8, !tbaa !3
  tail call void @mbedtls_rsa_free(ptr noundef %52) #9
  tail call void @free(ptr noundef %52) #9
  call void @llvm.lifetime.end.p0(i64 8, ptr nonnull %9) #9
  ret i32 %.0
}